target datalayout = "e-m:e-p270:32:32-p271:32:32-p272:64:64-i64:64-i128:128-f80:128-n8:16:32:64-S128"
target triple = "x86_64-pc-linux-gnu"

%"class.icu_77::CharacterIterator" = type { %"class.icu_77::ForwardCharacterIterator", i32, i32, i32, i32 }
%"class.icu_77::ForwardCharacterIterator" = type { %"class.icu_77::UObject" }
%"class.icu_77::UObject" = type { ptr }

@_ZTVN6icu_777UObjectE = available_externally unnamed_addr constant { [5 x ptr] } { [5 x ptr] [ptr null, ptr @_ZTIN6icu_777UObjectE, ptr @_ZN6icu_777UObjectD1Ev, ptr @_ZN6icu_777UObjectD0Ev, ptr @_ZNK6icu_777UObject17getDynamicClassIDEv] }, align 8

; Function Attrs: inlinehint mustprogress nounwind uwtable
define linkonce_odr void @_ZN6icu_777UObjectC2Ev(ptr noundef nonnull align 8 dereferenceable(8) %0) unnamed_addr #4 comdat align 2 {
  %2 = alloca ptr, align 8
  store ptr %0, ptr %2, align 8, !tbaa !10
  %3 = load ptr, ptr %2, align 8
  store ptr getelementptr inbounds inrange(-16, 24) ({ [5 x ptr] }, ptr @_ZTVN6icu_777UObjectE, i32 0, i32 0, i32 2), ptr %3, align 8, !tbaa !8
  ret void
}

; Function Attrs: mustprogress nounwind uwtable
define void @_ZN6icu_7724ForwardCharacterIteratorC2Ev(ptr noundef nonnull align 8 dereferenceable(8) %0) unnamed_addr #1 align 2 {
  %2 = alloca ptr, align 8
  store ptr %0, ptr %2, align 8, !tbaa !3
  %3 = load ptr, ptr %2, align 8
  %4 = getelementptr inbounds i8, ptr %3, i64 0
  call void @llvm.memset.p0.i64(ptr align 8 %4, i8 0, i64 8, i1 false)
  call void @_ZN6icu_777UObjectC2Ev(ptr noundef nonnull align 8 dereferenceable(8) %3) #8
  store ptr getelementptr inbounds inrange(-16, 64) ({ [10 x ptr] }, ptr @_ZTVN6icu_7724ForwardCharacterIteratorE, i32 0, i32 0, i32 2), ptr %3, align 8, !tbaa !8
  ret void
}

; Function Attrs: mustprogress nounwind uwtable
define void @_ZN6icu_7717CharacterIteratorC2Eii(ptr noundef nonnull align 8 dereferenceable(24) %0, i32 noundef %1, i32 noundef %2) unnamed_addr #1 align 2 {
  %4 = alloca ptr, align 8
  %5 = alloca i32, align 4
  %6 = alloca i32, align 4
  store ptr %0, ptr %4, align 8, !tbaa !12
  store i32 %1, ptr %5, align 4, !tbaa !22
  store i32 %2, ptr %6, align 4, !tbaa !22
  %7 = load ptr, ptr %4, align 8
  call void @_ZN6icu_7724ForwardCharacterIteratorC2Ev(ptr noundef nonnull align 8 dereferenceable(8) %7)
  store ptr getelementptr inbounds inrange(-16, 216) ({ [29 x ptr] }, ptr @_ZTVN6icu_7717CharacterIteratorE, i32 0, i32 0, i32 2), ptr %7, align 8, !tbaa !8
  %8 = getelementptr inbounds nuw %"class.icu_77::CharacterIterator", ptr %7, i32 0, i32 1
  %9 = load i32, ptr %5, align 4, !tbaa !22
  store i32 %9, ptr %8, align 8, !tbaa !14
  %10 = getelementptr inbounds nuw %"class.icu_77::CharacterIterator", ptr %7, i32 0, i32 2
  %11 = load i32, ptr %6, align 4, !tbaa !22
  store i32 %11, ptr %10, align 4, !tbaa !19
  %12 = getelementptr inbounds nuw %"class.icu_77::CharacterIterator", ptr %7, i32 0, i32 3
  store i32 0, ptr %12, align 8, !tbaa !20
  %13 = getelementptr inbounds nuw %"class.icu_77::CharacterIterator", ptr %7, i32 0, i32 4
  %14 = load i32, ptr %5, align 4, !tbaa !22
  store i32 %14, ptr %13, align 4, !tbaa !21
  %15 = getelementptr inbounds nuw %"class.icu_77::CharacterIterator", ptr %7, i32 0, i32 1
  %16 = load i32, ptr %15, align 8, !tbaa !14
  %17 = icmp slt i32 %16, 0
  br i1 %17, label %18, label %21

18:                                               ; preds = %3
  %19 = getelementptr inbounds nuw %"class.icu_77::CharacterIterator", ptr %7, i32 0, i32 4
  store i32 0, ptr %19, align 4, !tbaa !21
  %20 = getelementptr inbounds nuw %"class.icu_77::CharacterIterator", ptr %7, i32 0, i32 1
  store i32 0, ptr %20, align 8, !tbaa !14
  br label %21

21:                                               ; preds = %18, %3
  %22 = getelementptr inbounds nuw %"class.icu_77::CharacterIterator", ptr %7, i32 0, i32 2
  %23 = load i32, ptr %22, align 4, !tbaa !19
  %24 = icmp slt i32 %23, 0
  br i1 %24, label %25, label %27

25:                                               ; preds = %21
  %26 = getelementptr inbounds nuw %"class.icu_77::CharacterIterator", ptr %7, i32 0, i32 2
  store i32 0, ptr %26, align 4, !tbaa !19
  br label %38

27:                                               ; preds = %21
  %28 = getelementptr inbounds nuw %"class.icu_77::CharacterIterator", ptr %7, i32 0, i32 2
  %29 = load i32, ptr %28, align 4, !tbaa !19
  %30 = getelementptr inbounds nuw %"class.icu_77::CharacterIterator", ptr %7, i32 0, i32 4
  %31 = load i32, ptr %30, align 4, !tbaa !21
  %32 = icmp sgt i32 %29, %31
  br i1 %32, label %33, label %37

33:                                               ; preds = %27
  %34 = getelementptr inbounds nuw %"class.icu_77::CharacterIterator", ptr %7, i32 0, i32 4
  %35 = load i32, ptr %34, align 4, !tbaa !21
  %36 = getelementptr inbounds nuw %"class.icu_77::CharacterIterator", ptr %7, i32 0, i32 2
  store i32 %35, ptr %36, align 4, !tbaa !19
  br label %37

37:                                               ; preds = %33, %27
  br label %38

38:                                               ; preds = %37, %25
  ret void
}