; Function Attrs: mustprogress nofree norecurse nosync nounwind willreturn memory(argmem: write) uwtable
define void @_ZN6icu_7717CharacterIteratorC2Eii(ptr noundef nonnull writeonly align 8 captures(none) dereferenceable(24) initializes((0, 24)) %0, i32 noundef %1, i32 noundef %2) unnamed_addr #4 align 2 {
  store ptr getelementptr inbounds nuw inrange(-16, 216) (i8, ptr @_ZTVN6icu_7717CharacterIteratorE, i64 16), ptr %0, align 8, !tbaa !3
  %4 = getelementptr inbounds nuw i8, ptr %0, i64 8
  store i32 %1, ptr %4, align 8, !tbaa !6
  %5 = getelementptr inbounds nuw i8, ptr %0, i64 12
  store i32 %2, ptr %5, align 4, !tbaa !12
  %6 = getelementptr inbounds nuw i8, ptr %0, i64 16
  store i32 0, ptr %6, align 8, !tbaa !13
  %7 = getelementptr inbounds nuw i8, ptr %0, i64 20
  store i32 %1, ptr %7, align 4, !tbaa !14
  %8 = icmp slt i32 %1, 0
  br i1 %8, label %9, label %10

9:                                                ; preds = %3
  store i32 0, ptr %7, align 4, !tbaa !14
  store i32 0, ptr %4, align 8, !tbaa !6
  br label %10

10:                                               ; preds = %9, %3
  %11 = phi i32 [ 0, %9 ], [ %1, %3 ]
  %12 = icmp slt i32 %2, 0
  br i1 %12, label %.sink.split, label %13

13:                                               ; preds = %10
  %14 = icmp samesign ugt i32 %2, %11
  br i1 %14, label %.sink.split, label %15

.sink.split:                                      ; preds = %13, %10
  %.sink = phi i32 [ 0, %10 ], [ %11, %13 ]
  store i32 %.sink, ptr %5, align 4, !tbaa !12
  br label %15

15:                                               ; preds = %.sink.split, %13
  ret void
}